; Function Attrs: mustprogress uwtable
define dso_local void @_ZN19cmCMakePresetsGraph21printPrecedingNewlineEPNS_21PrintPrecedingNewlineE(ptr noundef %0) local_unnamed_addr #3 align 2 {
  %.not = icmp eq ptr %0, null
  br i1 %.not, label %8, label %2

2:                                                ; preds = %1
  %3 = load i32, ptr %0, align 4
  %4 = icmp eq i32 %3, 1
  br i1 %4, label %5, label %7

5:                                                ; preds = %2
  %6 = tail call noundef nonnull align 8 dereferenceable(8) ptr @_ZNSolsEPFRSoS_E(ptr noundef nonnull align 8 dereferenceable(8) @_ZSt4cout, ptr noundef nonnull @_ZSt4endlIcSt11char_traitsIcEERSt13basic_ostreamIT_T0_ES6_)
  br label %7

7:                                                ; preds = %5, %2
  store i32 1, ptr %0, align 4
  br label %8

8:                                                ; preds = %7, %1
  ret void
}